target datalayout = "e-m:e-p270:32:32-p271:32:32-p272:64:64-i64:64-i128:128-f80:128-n8:16:32:64-S128"
target triple = "x86_64-unknown-linux-gnu"

%"class.QuantLib::FdmLinearOp" = type { ptr }
%"class.std::unique_ptr" = type { %"struct.std::__uniq_ptr_data" }
%"struct.std::__uniq_ptr_data" = type { %"class.std::__uniq_ptr_impl" }
%"class.std::__uniq_ptr_impl" = type { %"class.std::tuple" }
%"class.std::tuple" = type { %"struct.std::_Tuple_impl" }
%"struct.std::_Tuple_impl" = type { %"struct.std::_Head_base.1" }
%"struct.std::_Head_base.1" = type { ptr }
%"class.boost::detail::shared_count" = type { ptr }
%"class.QuantLib::Array" = type { %"class.std::unique_ptr", i64 }
%"class.QuantLib::FdmSquareRootFwdOp" = type { %"class.QuantLib::FdmLinearOpComposite", i64, double, double, double, i32, %"class.boost::shared_ptr", %"class.QuantLib::Array" }
%"class.QuantLib::FdmLinearOpComposite" = type { %"class.QuantLib::FdmLinearOp" }
%"class.boost::shared_ptr" = type { ptr, %"class.boost::detail::shared_count" }

; Function Attrs: mustprogress uwtable
define noundef double @_ZNK8QuantLib18FdmSquareRootFwdOp5zetapEm(ptr noundef nonnull align 8 dereferenceable(80) %this, i64 noundef %i) #4 align 2 {
entry:
  %this.addr = alloca ptr, align 8
  %i.addr = alloca i64, align 8
  store ptr %this, ptr %this.addr, align 8, !tbaa !3
  store i64 %i, ptr %i.addr, align 8, !tbaa !9
  %this1 = load ptr, ptr %this.addr, align 8
  %0 = load i64, ptr %i.addr, align 8, !tbaa !9
  %call = call noundef double @_ZNK8QuantLib18FdmSquareRootFwdOp1hEm(ptr noundef nonnull align 8 dereferenceable(80) %this1, i64 noundef %0)
  %1 = load i64, ptr %i.addr, align 8, !tbaa !9
  %sub = sub i64 %1, 1
  %call2 = call noundef double @_ZNK8QuantLib18FdmSquareRootFwdOp1hEm(ptr noundef nonnull align 8 dereferenceable(80) %this1, i64 noundef %sub)
  %2 = load i64, ptr %i.addr, align 8, !tbaa !9
  %call3 = call noundef double @_ZNK8QuantLib18FdmSquareRootFwdOp1hEm(ptr noundef nonnull align 8 dereferenceable(80) %this1, i64 noundef %2)
  %add = fadd double %call2, %call3
  %mul = fmul double %call, %add
  ret double %mul
}

; Function Attrs: mustprogress uwtable
define noundef double @_ZNK8QuantLib18FdmSquareRootFwdOp4zetaEm(ptr noundef nonnull align 8 dereferenceable(80) %this, i64 noundef %i) #4 align 2 {
entry:
  %this.addr = alloca ptr, align 8
  %i.addr = alloca i64, align 8
  store ptr %this, ptr %this.addr, align 8, !tbaa !3
  store i64 %i, ptr %i.addr, align 8, !tbaa !9
  %this1 = load ptr, ptr %this.addr, align 8
  %0 = load i64, ptr %i.addr, align 8, !tbaa !9
  %sub = sub i64 %0, 1
  %call = call noundef double @_ZNK8QuantLib18FdmSquareRootFwdOp1hEm(ptr noundef nonnull align 8 dereferenceable(80) %this1, i64 noundef %sub)
  %1 = load i64, ptr %i.addr, align 8, !tbaa !9
  %call2 = call noundef double @_ZNK8QuantLib18FdmSquareRootFwdOp1hEm(ptr noundef nonnull align 8 dereferenceable(80) %this1, i64 noundef %1)
  %mul = fmul double %call, %call2
  ret double %mul
}

; Function Attrs: mustprogress uwtable
define noundef double @_ZNK8QuantLib18FdmSquareRootFwdOp1hEm(ptr noundef nonnull align 8 dereferenceable(80) %this, i64 noundef %i) #4 align 2 {
entry:
  %this.addr = alloca ptr, align 8
  %i.addr = alloca i64, align 8
  store ptr %this, ptr %this.addr, align 8, !tbaa !3
  store i64 %i, ptr %i.addr, align 8, !tbaa !9
  %this1 = load ptr, ptr %this.addr, align 8
  %0 = load i64, ptr %i.addr, align 8, !tbaa !9
  %add = add i64 %0, 1
  %call = call noundef double @_ZNK8QuantLib18FdmSquareRootFwdOp1vEm(ptr noundef nonnull align 8 dereferenceable(80) %this1, i64 noundef %add)
  %1 = load i64, ptr %i.addr, align 8, !tbaa !9
  %call2 = call noundef double @_ZNK8QuantLib18FdmSquareRootFwdOp1vEm(ptr noundef nonnull align 8 dereferenceable(80) %this1, i64 noundef %1)
  %sub = fsub double %call, %call2
  ret double %sub
}

; Function Attrs: mustprogress uwtable
define noundef double @_ZNK8QuantLib18FdmSquareRootFwdOp2muEm(ptr noundef nonnull align 8 dereferenceable(80) %this, i64 noundef %i) #4 align 2 {
entry:
  %this.addr = alloca ptr, align 8
  %i.addr = alloca i64, align 8
  store ptr %this, ptr %this.addr, align 8, !tbaa !3
  store i64 %i, ptr %i.addr, align 8, !tbaa !9
  %this1 = load ptr, ptr %this.addr, align 8
  %kappa_ = getelementptr inbounds nuw %"class.QuantLib::FdmSquareRootFwdOp", ptr %this1, i32 0, i32 2
  %0 = load double, ptr %kappa_, align 8, !tbaa !28
  %1 = load i64, ptr %i.addr, align 8, !tbaa !9
  %call = call noundef double @_ZNK8QuantLib18FdmSquareRootFwdOp1vEm(ptr noundef nonnull align 8 dereferenceable(80) %this1, i64 noundef %1)
  %theta_ = getelementptr inbounds nuw %"class.QuantLib::FdmSquareRootFwdOp", ptr %this1, i32 0, i32 3
  %2 = load double, ptr %theta_, align 8, !tbaa !29
  %sub = fsub double %call, %2
  %sigma_ = getelementptr inbounds nuw %"class.QuantLib::FdmSquareRootFwdOp", ptr %this1, i32 0, i32 4
  %3 = load double, ptr %sigma_, align 8, !tbaa !30
  %sigma_2 = getelementptr inbounds nuw %"class.QuantLib::FdmSquareRootFwdOp", ptr %this1, i32 0, i32 4
  %4 = load double, ptr %sigma_2, align 8, !tbaa !30
  %mul3 = fmul double %3, %4
  %5 = call double @llvm.fmuladd.f64(double %0, double %sub, double %mul3)
  ret double %5
}

; Function Attrs: mustprogress uwtable
define noundef double @_ZNK8QuantLib18FdmSquareRootFwdOp5zetamEm(ptr noundef nonnull align 8 dereferenceable(80) %this, i64 noundef %i) #4 align 2 {
entry:
  %this.addr = alloca ptr, align 8
  %i.addr = alloca i64, align 8
  store ptr %this, ptr %this.addr, align 8, !tbaa !3
  store i64 %i, ptr %i.addr, align 8, !tbaa !9
  %this1 = load ptr, ptr %this.addr, align 8
  %0 = load i64, ptr %i.addr, align 8, !tbaa !9
  %sub = sub i64 %0, 1
  %call = call noundef double @_ZNK8QuantLib18FdmSquareRootFwdOp1hEm(ptr noundef nonnull align 8 dereferenceable(80) %this1, i64 noundef %sub)
  %1 = load i64, ptr %i.addr, align 8, !tbaa !9
  %sub2 = sub i64 %1, 1
  %call3 = call noundef double @_ZNK8QuantLib18FdmSquareRootFwdOp1hEm(ptr noundef nonnull align 8 dereferenceable(80) %this1, i64 noundef %sub2)
  %2 = load i64, ptr %i.addr, align 8, !tbaa !9
  %call4 = call noundef double @_ZNK8QuantLib18FdmSquareRootFwdOp1hEm(ptr noundef nonnull align 8 dereferenceable(80) %this1, i64 noundef %2)
  %add = fadd double %call3, %call4
  %mul = fmul double %call, %add
  ret double %mul
}

; Function Attrs: mustprogress uwtable
define void @_ZNK8QuantLib18FdmSquareRootFwdOp13getCoeffPlainERdS1_S1_m(ptr noundef nonnull align 8 dereferenceable(80) %this, ptr noundef nonnull align 8 dereferenceable(8) %alpha, ptr noundef nonnull align 8 dereferenceable(8) %beta, ptr noundef nonnull align 8 dereferenceable(8) %gamma, i64 noundef %n) #4 align 2 {
entry:
  %this.addr = alloca ptr, align 8
  %alpha.addr = alloca ptr, align 8
  %beta.addr = alloca ptr, align 8
  %gamma.addr = alloca ptr, align 8
  %n.addr = alloca i64, align 8
  store ptr %this, ptr %this.addr, align 8, !tbaa !3
  store ptr %alpha, ptr %alpha.addr, align 8, !tbaa !3
  store ptr %beta, ptr %beta.addr, align 8, !tbaa !3
  store ptr %gamma, ptr %gamma.addr, align 8, !tbaa !3
  store i64 %n, ptr %n.addr, align 8, !tbaa !9
  %this1 = load ptr, ptr %this.addr, align 8
  %sigma_ = getelementptr inbounds nuw %"class.QuantLib::FdmSquareRootFwdOp", ptr %this1, i32 0, i32 4
  %0 = load double, ptr %sigma_, align 8, !tbaa !30
  %sigma_2 = getelementptr inbounds nuw %"class.QuantLib::FdmSquareRootFwdOp", ptr %this1, i32 0, i32 4
  %1 = load double, ptr %sigma_2, align 8, !tbaa !30
  %mul = fmul double %0, %1
  %2 = load i64, ptr %n.addr, align 8, !tbaa !9
  %call = call noundef double @_ZNK8QuantLib18FdmSquareRootFwdOp1vEm(ptr noundef nonnull align 8 dereferenceable(80) %this1, i64 noundef %2)
  %mul3 = fmul double %mul, %call
  %3 = load i64, ptr %n.addr, align 8, !tbaa !9
  %call4 = call noundef double @_ZNK8QuantLib18FdmSquareRootFwdOp5zetamEm(ptr noundef nonnull align 8 dereferenceable(80) %this1, i64 noundef %3)
  %div = fdiv double %mul3, %call4
  %4 = load i64, ptr %n.addr, align 8, !tbaa !9
  %call5 = call noundef double @_ZNK8QuantLib18FdmSquareRootFwdOp2muEm(ptr noundef nonnull align 8 dereferenceable(80) %this1, i64 noundef %4)
  %5 = load i64, ptr %n.addr, align 8, !tbaa !9
  %call6 = call noundef double @_ZNK8QuantLib18FdmSquareRootFwdOp1hEm(ptr noundef nonnull align 8 dereferenceable(80) %this1, i64 noundef %5)
  %mul7 = fmul double %call5, %call6
  %6 = load i64, ptr %n.addr, align 8, !tbaa !9
  %call8 = call noundef double @_ZNK8QuantLib18FdmSquareRootFwdOp5zetamEm(ptr noundef nonnull align 8 dereferenceable(80) %this1, i64 noundef %6)
  %div9 = fdiv double %mul7, %call8
  %sub = fsub double %div, %div9
  %7 = load ptr, ptr %alpha.addr, align 8, !tbaa !3
  store double %sub, ptr %7, align 8, !tbaa !7
  %sigma_10 = getelementptr inbounds nuw %"class.QuantLib::FdmSquareRootFwdOp", ptr %this1, i32 0, i32 4
  %8 = load double, ptr %sigma_10, align 8, !tbaa !30
  %fneg = fneg double %8
  %sigma_11 = getelementptr inbounds nuw %"class.QuantLib::FdmSquareRootFwdOp", ptr %this1, i32 0, i32 4
  %9 = load double, ptr %sigma_11, align 8, !tbaa !30
  %mul12 = fmul double %fneg, %9
  %10 = load i64, ptr %n.addr, align 8, !tbaa !9
  %call13 = call noundef double @_ZNK8QuantLib18FdmSquareRootFwdOp1vEm(ptr noundef nonnull align 8 dereferenceable(80) %this1, i64 noundef %10)
  %mul14 = fmul double %mul12, %call13
  %11 = load i64, ptr %n.addr, align 8, !tbaa !9
  %call15 = call noundef double @_ZNK8QuantLib18FdmSquareRootFwdOp4zetaEm(ptr noundef nonnull align 8 dereferenceable(80) %this1, i64 noundef %11)
  %div16 = fdiv double %mul14, %call15
  %12 = load i64, ptr %n.addr, align 8, !tbaa !9
  %call17 = call noundef double @_ZNK8QuantLib18FdmSquareRootFwdOp2muEm(ptr noundef nonnull align 8 dereferenceable(80) %this1, i64 noundef %12)
  %13 = load i64, ptr %n.addr, align 8, !tbaa !9
  %call18 = call noundef double @_ZNK8QuantLib18FdmSquareRootFwdOp1hEm(ptr noundef nonnull align 8 dereferenceable(80) %this1, i64 noundef %13)
  %14 = load i64, ptr %n.addr, align 8, !tbaa !9
  %sub19 = sub i64 %14, 1
  %call20 = call noundef double @_ZNK8QuantLib18FdmSquareRootFwdOp1hEm(ptr noundef nonnull align 8 dereferenceable(80) %this1, i64 noundef %sub19)
  %sub21 = fsub double %call18, %call20
  %mul22 = fmul double %call17, %sub21
  %15 = load i64, ptr %n.addr, align 8, !tbaa !9
  %call23 = call noundef double @_ZNK8QuantLib18FdmSquareRootFwdOp4zetaEm(ptr noundef nonnull align 8 dereferenceable(80) %this1, i64 noundef %15)
  %div24 = fdiv double %mul22, %call23
  %add = fadd double %div16, %div24
  %kappa_ = getelementptr inbounds nuw %"class.QuantLib::FdmSquareRootFwdOp", ptr %this1, i32 0, i32 2
  %16 = load double, ptr %kappa_, align 8, !tbaa !28
  %add25 = fadd double %add, %16
  %17 = load ptr, ptr %beta.addr, align 8, !tbaa !3
  store double %add25, ptr %17, align 8, !tbaa !7
  %sigma_26 = getelementptr inbounds nuw %"class.QuantLib::FdmSquareRootFwdOp", ptr %this1, i32 0, i32 4
  %18 = load double, ptr %sigma_26, align 8, !tbaa !30
  %sigma_27 = getelementptr inbounds nuw %"class.QuantLib::FdmSquareRootFwdOp", ptr %this1, i32 0, i32 4
  %19 = load double, ptr %sigma_27, align 8, !tbaa !30
  %mul28 = fmul double %18, %19
  %20 = load i64, ptr %n.addr, align 8, !tbaa !9
  %call29 = call noundef double @_ZNK8QuantLib18FdmSquareRootFwdOp1vEm(ptr noundef nonnull align 8 dereferenceable(80) %this1, i64 noundef %20)
  %mul30 = fmul double %mul28, %call29
  %21 = load i64, ptr %n.addr, align 8, !tbaa !9
  %call31 = call noundef double @_ZNK8QuantLib18FdmSquareRootFwdOp5zetapEm(ptr noundef nonnull align 8 dereferenceable(80) %this1, i64 noundef %21)
  %div32 = fdiv double %mul30, %call31
  %22 = load i64, ptr %n.addr, align 8, !tbaa !9
  %call33 = call noundef double @_ZNK8QuantLib18FdmSquareRootFwdOp2muEm(ptr noundef nonnull align 8 dereferenceable(80) %this1, i64 noundef %22)
  %23 = load i64, ptr %n.addr, align 8, !tbaa !9
  %sub34 = sub i64 %23, 1
  %call35 = call noundef double @_ZNK8QuantLib18FdmSquareRootFwdOp1hEm(ptr noundef nonnull align 8 dereferenceable(80) %this1, i64 noundef %sub34)
  %mul36 = fmul double %call33, %call35
  %24 = load i64, ptr %n.addr, align 8, !tbaa !9
  %call37 = call noundef double @_ZNK8QuantLib18FdmSquareRootFwdOp5zetapEm(ptr noundef nonnull align 8 dereferenceable(80) %this1, i64 noundef %24)
  %div38 = fdiv double %mul36, %call37
  %add39 = fadd double %div32, %div38
  %25 = load ptr, ptr %gamma.addr, align 8, !tbaa !3
  store double %add39, ptr %25, align 8, !tbaa !7
  ret void
}