; Function Attrs: mustprogress uwtable
define void @_ZNK8QuantLib18FdmSquareRootFwdOp13getCoeffPlainERdS1_S1_m(ptr nocapture noundef nonnull readonly align 8 dereferenceable(80) %this, ptr nocapture noundef nonnull writeonly align 8 dereferenceable(8) %alpha, ptr nocapture noundef nonnull writeonly align 8 dereferenceable(8) %beta, ptr nocapture noundef nonnull writeonly align 8 dereferenceable(8) %gamma, i64 noundef %n) local_unnamed_addr #3 align 2 {
entry:
  %sigma_ = getelementptr inbounds nuw i8, ptr %this, i64 32
  %0 = load double, ptr %sigma_, align 8, !tbaa !26
  %mul = fmul double %0, %0
  %call = tail call noundef double @_ZNK8QuantLib18FdmSquareRootFwdOp1vEm(ptr noundef nonnull align 8 dereferenceable(80) %this, i64 noundef %n)
  %mul3 = fmul double %mul, %call
  %sub.i = add i64 %n, -1
  %call.i.i = tail call noundef double @_ZNK8QuantLib18FdmSquareRootFwdOp1vEm(ptr noundef nonnull readonly align 8 dereferenceable(80) %this, i64 noundef %n)
  %call2.i.i = tail call noundef double @_ZNK8QuantLib18FdmSquareRootFwdOp1vEm(ptr noundef nonnull readonly align 8 dereferenceable(80) %this, i64 noundef %sub.i)
  %sub.i.i = fsub double %call.i.i, %call2.i.i
  %call.i3.i = tail call noundef double @_ZNK8QuantLib18FdmSquareRootFwdOp1vEm(ptr noundef nonnull readonly align 8 dereferenceable(80) %this, i64 noundef %n)
  %call2.i4.i = tail call noundef double @_ZNK8QuantLib18FdmSquareRootFwdOp1vEm(ptr noundef nonnull readonly align 8 dereferenceable(80) %this, i64 noundef %sub.i)
  %sub.i5.i = fsub double %call.i3.i, %call2.i4.i
  %add.i.i = add i64 %n, 1
  %call.i6.i = tail call noundef double @_ZNK8QuantLib18FdmSquareRootFwdOp1vEm(ptr noundef nonnull readonly align 8 dereferenceable(80) %this, i64 noundef %add.i.i)
  %call2.i7.i = tail call noundef double @_ZNK8QuantLib18FdmSquareRootFwdOp1vEm(ptr noundef nonnull readonly align 8 dereferenceable(80) %this, i64 noundef %n)
  %sub.i8.i = fsub double %call.i6.i, %call2.i7.i
  %add.i = fadd double %sub.i5.i, %sub.i8.i
  %mul.i = fmul double %sub.i.i, %add.i
  %div = fdiv double %mul3, %mul.i
  %kappa_.i = getelementptr inbounds nuw i8, ptr %this, i64 16
  %1 = load double, ptr %kappa_.i, align 8, !tbaa !24
  %call.i = tail call noundef double @_ZNK8QuantLib18FdmSquareRootFwdOp1vEm(ptr noundef nonnull readonly align 8 dereferenceable(80) %this, i64 noundef %n)
  %theta_.i = getelementptr inbounds nuw i8, ptr %this, i64 24
  %2 = load double, ptr %theta_.i, align 8, !tbaa !25
  %sub.i16 = fsub double %call.i, %2
  %3 = load double, ptr %sigma_, align 8, !tbaa !26
  %mul3.i = fmul double %3, %3
  %4 = tail call noundef double @llvm.fmuladd.f64(double %1, double %sub.i16, double %mul3.i)
  %call.i18 = tail call noundef double @_ZNK8QuantLib18FdmSquareRootFwdOp1vEm(ptr noundef nonnull readonly align 8 dereferenceable(80) %this, i64 noundef %add.i.i)
  %call2.i = tail call noundef double @_ZNK8QuantLib18FdmSquareRootFwdOp1vEm(ptr noundef nonnull readonly align 8 dereferenceable(80) %this, i64 noundef %n)
  %sub.i19 = fsub double %call.i18, %call2.i
  %mul7 = fmul double %4, %sub.i19
  %call.i.i21 = tail call noundef double @_ZNK8QuantLib18FdmSquareRootFwdOp1vEm(ptr noundef nonnull readonly align 8 dereferenceable(80) %this, i64 noundef %n)
  %call2.i.i22 = tail call noundef double @_ZNK8QuantLib18FdmSquareRootFwdOp1vEm(ptr noundef nonnull readonly align 8 dereferenceable(80) %this, i64 noundef %sub.i)
  %sub.i.i23 = fsub double %call.i.i21, %call2.i.i22
  %call.i3.i24 = tail call noundef double @_ZNK8QuantLib18FdmSquareRootFwdOp1vEm(ptr noundef nonnull readonly align 8 dereferenceable(80) %this, i64 noundef %n)
  %call2.i4.i25 = tail call noundef double @_ZNK8QuantLib18FdmSquareRootFwdOp1vEm(ptr noundef nonnull readonly align 8 dereferenceable(80) %this, i64 noundef %sub.i)
  %sub.i5.i26 = fsub double %call.i3.i24, %call2.i4.i25
  %call.i6.i28 = tail call noundef double @_ZNK8QuantLib18FdmSquareRootFwdOp1vEm(ptr noundef nonnull readonly align 8 dereferenceable(80) %this, i64 noundef %add.i.i)
  %call2.i7.i29 = tail call noundef double @_ZNK8QuantLib18FdmSquareRootFwdOp1vEm(ptr noundef nonnull readonly align 8 dereferenceable(80) %this, i64 noundef %n)
  %sub.i8.i30 = fsub double %call.i6.i28, %call2.i7.i29
  %add.i31 = fadd double %sub.i5.i26, %sub.i8.i30
  %mul.i32 = fmul double %sub.i.i23, %add.i31
  %div9 = fdiv double %mul7, %mul.i32
  %sub = fsub double %div, %div9
  store double %sub, ptr %alpha, align 8, !tbaa !36
  %5 = load double, ptr %sigma_, align 8, !tbaa !26
  %fneg = fneg double %5
  %mul12 = fmul double %5, %fneg
  %call13 = tail call noundef double @_ZNK8QuantLib18FdmSquareRootFwdOp1vEm(ptr noundef nonnull align 8 dereferenceable(80) %this, i64 noundef %n)
  %mul14 = fmul double %mul12, %call13
  %call.i.i34 = tail call noundef double @_ZNK8QuantLib18FdmSquareRootFwdOp1vEm(ptr noundef nonnull readonly align 8 dereferenceable(80) %this, i64 noundef %n)
  %call2.i.i35 = tail call noundef double @_ZNK8QuantLib18FdmSquareRootFwdOp1vEm(ptr noundef nonnull readonly align 8 dereferenceable(80) %this, i64 noundef %sub.i)
  %sub.i.i36 = fsub double %call.i.i34, %call2.i.i35
  %call.i2.i = tail call noundef double @_ZNK8QuantLib18FdmSquareRootFwdOp1vEm(ptr noundef nonnull readonly align 8 dereferenceable(80) %this, i64 noundef %add.i.i)
  %call2.i3.i = tail call noundef double @_ZNK8QuantLib18FdmSquareRootFwdOp1vEm(ptr noundef nonnull readonly align 8 dereferenceable(80) %this, i64 noundef %n)
  %sub.i4.i = fsub double %call.i2.i, %call2.i3.i
  %mul.i38 = fmul double %sub.i.i36, %sub.i4.i
  %div16 = fdiv double %mul14, %mul.i38
  %6 = load double, ptr %kappa_.i, align 8, !tbaa !24
  %call.i40 = tail call noundef double @_ZNK8QuantLib18FdmSquareRootFwdOp1vEm(ptr noundef nonnull readonly align 8 dereferenceable(80) %this, i64 noundef %n)
  %7 = load double, ptr %theta_.i, align 8, !tbaa !25
  %sub.i42 = fsub double %call.i40, %7
  %8 = load double, ptr %sigma_, align 8, !tbaa !26
  %mul3.i44 = fmul double %8, %8
  %9 = tail call noundef double @llvm.fmuladd.f64(double %6, double %sub.i42, double %mul3.i44)
  %call.i46 = tail call noundef double @_ZNK8QuantLib18FdmSquareRootFwdOp1vEm(ptr noundef nonnull readonly align 8 dereferenceable(80) %this, i64 noundef %add.i.i)
  %call2.i47 = tail call noundef double @_ZNK8QuantLib18FdmSquareRootFwdOp1vEm(ptr noundef nonnull readonly align 8 dereferenceable(80) %this, i64 noundef %n)
  %sub.i48 = fsub double %call.i46, %call2.i47
  %call.i50 = tail call noundef double @_ZNK8QuantLib18FdmSquareRootFwdOp1vEm(ptr noundef nonnull readonly align 8 dereferenceable(80) %this, i64 noundef %n)
  %call2.i51 = tail call noundef double @_ZNK8QuantLib18FdmSquareRootFwdOp1vEm(ptr noundef nonnull readonly align 8 dereferenceable(80) %this, i64 noundef %sub.i)
  %sub.i52 = fsub double %call.i50, %call2.i51
  %sub21 = fsub double %sub.i48, %sub.i52
  %mul22 = fmul double %9, %sub21
  %call.i.i54 = tail call noundef double @_ZNK8QuantLib18FdmSquareRootFwdOp1vEm(ptr noundef nonnull readonly align 8 dereferenceable(80) %this, i64 noundef %n)
  %call2.i.i55 = tail call noundef double @_ZNK8QuantLib18FdmSquareRootFwdOp1vEm(ptr noundef nonnull readonly align 8 dereferenceable(80) %this, i64 noundef %sub.i)
  %sub.i.i56 = fsub double %call.i.i54, %call2.i.i55
  %call.i2.i58 = tail call noundef double @_ZNK8QuantLib18FdmSquareRootFwdOp1vEm(ptr noundef nonnull readonly align 8 dereferenceable(80) %this, i64 noundef %add.i.i)
  %call2.i3.i59 = tail call noundef double @_ZNK8QuantLib18FdmSquareRootFwdOp1vEm(ptr noundef nonnull readonly align 8 dereferenceable(80) %this, i64 noundef %n)
  %sub.i4.i60 = fsub double %call.i2.i58, %call2.i3.i59
  %mul.i61 = fmul double %sub.i.i56, %sub.i4.i60
  %div24 = fdiv double %mul22, %mul.i61
  %add = fadd double %div16, %div24
  %10 = load double, ptr %kappa_.i, align 8, !tbaa !24
  %add25 = fadd double %10, %add
  store double %add25, ptr %beta, align 8, !tbaa !36
  %11 = load double, ptr %sigma_, align 8, !tbaa !26
  %mul28 = fmul double %11, %11
  %call29 = tail call noundef double @_ZNK8QuantLib18FdmSquareRootFwdOp1vEm(ptr noundef nonnull align 8 dereferenceable(80) %this, i64 noundef %n)
  %mul30 = fmul double %mul28, %call29
  %call.i.i63 = tail call noundef double @_ZNK8QuantLib18FdmSquareRootFwdOp1vEm(ptr noundef nonnull readonly align 8 dereferenceable(80) %this, i64 noundef %add.i.i)
  %call2.i.i64 = tail call noundef double @_ZNK8QuantLib18FdmSquareRootFwdOp1vEm(ptr noundef nonnull readonly align 8 dereferenceable(80) %this, i64 noundef %n)
  %sub.i.i65 = fsub double %call.i.i63, %call2.i.i64
  %call.i4.i = tail call noundef double @_ZNK8QuantLib18FdmSquareRootFwdOp1vEm(ptr noundef nonnull readonly align 8 dereferenceable(80) %this, i64 noundef %n)
  %call2.i5.i = tail call noundef double @_ZNK8QuantLib18FdmSquareRootFwdOp1vEm(ptr noundef nonnull readonly align 8 dereferenceable(80) %this, i64 noundef %sub.i)
  %sub.i6.i = fsub double %call.i4.i, %call2.i5.i
  %call.i8.i = tail call noundef double @_ZNK8QuantLib18FdmSquareRootFwdOp1vEm(ptr noundef nonnull readonly align 8 dereferenceable(80) %this, i64 noundef %add.i.i)
  %call2.i9.i = tail call noundef double @_ZNK8QuantLib18FdmSquareRootFwdOp1vEm(ptr noundef nonnull readonly align 8 dereferenceable(80) %this, i64 noundef %n)
  %sub.i10.i = fsub double %call.i8.i, %call2.i9.i
  %add.i67 = fadd double %sub.i6.i, %sub.i10.i
  %mul.i68 = fmul double %sub.i.i65, %add.i67
  %div32 = fdiv double %mul30, %mul.i68
  %12 = load double, ptr %kappa_.i, align 8, !tbaa !24
  %call.i70 = tail call noundef double @_ZNK8QuantLib18FdmSquareRootFwdOp1vEm(ptr noundef nonnull readonly align 8 dereferenceable(80) %this, i64 noundef %n)
  %13 = load double, ptr %theta_.i, align 8, !tbaa !25
  %sub.i72 = fsub double %call.i70, %13
  %14 = load double, ptr %sigma_, align 8, !tbaa !26
  %mul3.i74 = fmul double %14, %14
  %15 = tail call noundef double @llvm.fmuladd.f64(double %12, double %sub.i72, double %mul3.i74)
  %call.i76 = tail call noundef double @_ZNK8QuantLib18FdmSquareRootFwdOp1vEm(ptr noundef nonnull readonly align 8 dereferenceable(80) %this, i64 noundef %n)
  %call2.i77 = tail call noundef double @_ZNK8QuantLib18FdmSquareRootFwdOp1vEm(ptr noundef nonnull readonly align 8 dereferenceable(80) %this, i64 noundef %sub.i)
  %sub.i78 = fsub double %call.i76, %call2.i77
  %mul36 = fmul double %15, %sub.i78
  %call.i.i80 = tail call noundef double @_ZNK8QuantLib18FdmSquareRootFwdOp1vEm(ptr noundef nonnull readonly align 8 dereferenceable(80) %this, i64 noundef %add.i.i)
  %call2.i.i81 = tail call noundef double @_ZNK8QuantLib18FdmSquareRootFwdOp1vEm(ptr noundef nonnull readonly align 8 dereferenceable(80) %this, i64 noundef %n)
  %sub.i.i82 = fsub double %call.i.i80, %call2.i.i81
  %call.i4.i84 = tail call noundef double @_ZNK8QuantLib18FdmSquareRootFwdOp1vEm(ptr noundef nonnull readonly align 8 dereferenceable(80) %this, i64 noundef %n)
  %call2.i5.i85 = tail call noundef double @_ZNK8QuantLib18FdmSquareRootFwdOp1vEm(ptr noundef nonnull readonly align 8 dereferenceable(80) %this, i64 noundef %sub.i)
  %sub.i6.i86 = fsub double %call.i4.i84, %call2.i5.i85
  %call.i8.i87 = tail call noundef double @_ZNK8QuantLib18FdmSquareRootFwdOp1vEm(ptr noundef nonnull readonly align 8 dereferenceable(80) %this, i64 noundef %add.i.i)
  %call2.i9.i88 = tail call noundef double @_ZNK8QuantLib18FdmSquareRootFwdOp1vEm(ptr noundef nonnull readonly align 8 dereferenceable(80) %this, i64 noundef %n)
  %sub.i10.i89 = fsub double %call.i8.i87, %call2.i9.i88
  %add.i90 = fadd double %sub.i6.i86, %sub.i10.i89
  %mul.i91 = fmul double %sub.i.i82, %add.i90
  %div38 = fdiv double %mul36, %mul.i91
  %add39 = fadd double %div32, %div38
  store double %add39, ptr %gamma, align 8, !tbaa !36
  ret void
}